target datalayout = "e-m:e-p270:32:32-p271:32:32-p272:64:64-i64:64-i128:128-f80:128-n8:16:32:64-S128"
target triple = "x86_64-pc-linux-gnu"

%"class.pxrInternal_v0_24__pxrReserved__::TfCallContext" = type <{ ptr, ptr, i64, ptr, i8, [7 x i8] }>
%"class.std::__shared_ptr" = type { ptr, %"class.std::__shared_count" }
%"class.std::__shared_count" = type { ptr }
%"class.pxrInternal_v0_24__pxrReserved__::TfType" = type { ptr }

@.str.10 = private unnamed_addr constant [137 x i8] c"generated/home/dtcxzyw/WorkSpace/Projects/compilers/llvm-opt-benchmark/bench/openusd/OpenUSD/pxr/usd/usdShade/connectableAPIBehavior.cpp\00", align 1
@__func__._ZN32pxrInternal_v0_24__pxrReserved__38UsdShadeRegisterConnectableAPIBehaviorERKNS_6TfTypeERKSt10shared_ptrINS_30UsdShadeConnectableAPIBehaviorEE = private unnamed_addr constant [39 x i8] c"UsdShadeRegisterConnectableAPIBehavior\00", align 1
@.str.11 = private unnamed_addr constant [49 x i8] c"Invalid behavior registration for prim type '%s'\00", align 1

; Function Attrs: mustprogress nounwind uwtable
define linkonce_odr noundef zeroext i1 @_ZNK32pxrInternal_v0_24__pxrReserved__6TfTypeeqERKS0_(ptr noundef nonnull align 8 dereferenceable(8) %0, ptr noundef nonnull align 8 dereferenceable(8) %1) #0 comdat align 2 {
  %3 = alloca ptr, align 8
  %4 = alloca ptr, align 8
  store ptr %0, ptr %3, align 8
  store ptr %1, ptr %4, align 8
  %5 = load ptr, ptr %3, align 8
  %6 = getelementptr inbounds nuw %"class.pxrInternal_v0_24__pxrReserved__::TfType", ptr %5, i32 0, i32 0
  %7 = load ptr, ptr %6, align 8
  %8 = load ptr, ptr %4, align 8
  %9 = getelementptr inbounds nuw %"class.pxrInternal_v0_24__pxrReserved__::TfType", ptr %8, i32 0, i32 0
  %10 = load ptr, ptr %9, align 8
  %11 = icmp eq ptr %7, %10
  ret i1 %11
}

; Function Attrs: mustprogress nounwind uwtable
define linkonce_odr void @_ZN32pxrInternal_v0_24__pxrReserved__13TfCallContextC2EPKcS2_mS2_(ptr noundef nonnull align 8 dereferenceable(33) %0, ptr noundef %1, ptr noundef %2, i64 noundef %3, ptr noundef %4) unnamed_addr #0 comdat align 2 {
  %6 = alloca ptr, align 8
  %7 = alloca ptr, align 8
  %8 = alloca ptr, align 8
  %9 = alloca i64, align 8
  %10 = alloca ptr, align 8
  store ptr %0, ptr %6, align 8
  store ptr %1, ptr %7, align 8
  store ptr %2, ptr %8, align 8
  store i64 %3, ptr %9, align 8
  store ptr %4, ptr %10, align 8
  %11 = load ptr, ptr %6, align 8
  %12 = getelementptr inbounds nuw %"class.pxrInternal_v0_24__pxrReserved__::TfCallContext", ptr %11, i32 0, i32 0
  %13 = load ptr, ptr %7, align 8
  store ptr %13, ptr %12, align 8
  %14 = getelementptr inbounds nuw %"class.pxrInternal_v0_24__pxrReserved__::TfCallContext", ptr %11, i32 0, i32 1
  %15 = load ptr, ptr %8, align 8
  store ptr %15, ptr %14, align 8
  %16 = getelementptr inbounds nuw %"class.pxrInternal_v0_24__pxrReserved__::TfCallContext", ptr %11, i32 0, i32 2
  %17 = load i64, ptr %9, align 8
  store i64 %17, ptr %16, align 8
  %18 = getelementptr inbounds nuw %"class.pxrInternal_v0_24__pxrReserved__::TfCallContext", ptr %11, i32 0, i32 3
  %19 = load ptr, ptr %10, align 8
  store ptr %19, ptr %18, align 8
  %20 = getelementptr inbounds nuw %"class.pxrInternal_v0_24__pxrReserved__::TfCallContext", ptr %11, i32 0, i32 4
  store i8 0, ptr %20, align 8
  ret void
}

; Function Attrs: mustprogress uwtable
define linkonce_odr noundef zeroext i1 @_ZNK32pxrInternal_v0_24__pxrReserved__6TfType9IsUnknownEv(ptr noundef nonnull align 8 dereferenceable(8) %0) #2 comdat align 2 {
  %2 = alloca ptr, align 8
  %3 = alloca %"class.pxrInternal_v0_24__pxrReserved__::TfType", align 8
  store ptr %0, ptr %2, align 8
  %4 = load ptr, ptr %2, align 8
  call void @_ZN32pxrInternal_v0_24__pxrReserved__6TfTypeC1Ev(ptr noundef nonnull align 8 dereferenceable(8) %3)
  %5 = call noundef zeroext i1 @_ZNK32pxrInternal_v0_24__pxrReserved__6TfTypeeqERKS0_(ptr noundef nonnull align 8 dereferenceable(8) %4, ptr noundef nonnull align 8 dereferenceable(8) %3)
  ret i1 %5
}

; Function Attrs: mustprogress nounwind uwtable
define linkonce_odr noundef zeroext i1 @_ZNKSt12__shared_ptrIN32pxrInternal_v0_24__pxrReserved__30UsdShadeConnectableAPIBehaviorELN9__gnu_cxx12_Lock_policyE2EEcvbEv(ptr noundef nonnull align 8 dereferenceable(16) %0) #0 comdat align 2 {
  %2 = alloca ptr, align 8
  store ptr %0, ptr %2, align 8
  %3 = load ptr, ptr %2, align 8
  %4 = getelementptr inbounds nuw %"class.std::__shared_ptr", ptr %3, i32 0, i32 0
  %5 = load ptr, ptr %4, align 8
  %6 = icmp ne ptr %5, null
  ret i1 %6
}

; Function Attrs: mustprogress uwtable
define void @_ZN32pxrInternal_v0_24__pxrReserved__38UsdShadeRegisterConnectableAPIBehaviorERKNS_6TfTypeERKSt10shared_ptrINS_30UsdShadeConnectableAPIBehaviorEE(ptr noundef nonnull align 8 dereferenceable(8) %0, ptr noundef nonnull align 8 dereferenceable(16) %1) #2 {
  %3 = alloca ptr, align 8
  %4 = alloca ptr, align 8
  %5 = alloca %"class.pxrInternal_v0_24__pxrReserved__::TfCallContext", align 8
  store ptr %0, ptr %3, align 8
  store ptr %1, ptr %4, align 8
  %6 = load ptr, ptr %4, align 8
  %7 = call noundef zeroext i1 @_ZNKSt12__shared_ptrIN32pxrInternal_v0_24__pxrReserved__30UsdShadeConnectableAPIBehaviorELN9__gnu_cxx12_Lock_policyE2EEcvbEv(ptr noundef nonnull align 8 dereferenceable(16) %6) #11
  br i1 %7, label %8, label %11

8:                                                ; preds = %2
  %9 = load ptr, ptr %3, align 8
  %10 = call noundef zeroext i1 @_ZNK32pxrInternal_v0_24__pxrReserved__6TfType9IsUnknownEv(ptr noundef nonnull align 8 dereferenceable(8) %9)
  br i1 %10, label %11, label %15

11:                                               ; preds = %8, %2
  call void @_ZN32pxrInternal_v0_24__pxrReserved__13TfCallContextC2EPKcS2_mS2_(ptr noundef nonnull align 8 dereferenceable(33) %5, ptr noundef @.str.10, ptr noundef @__func__._ZN32pxrInternal_v0_24__pxrReserved__38UsdShadeRegisterConnectableAPIBehaviorERKNS_6TfTypeERKSt10shared_ptrINS_30UsdShadeConnectableAPIBehaviorEE, i64 noundef 820, ptr noundef @__PRETTY_FUNCTION__._ZN32pxrInternal_v0_24__pxrReserved__38UsdShadeRegisterConnectableAPIBehaviorERKNS_6TfTypeERKSt10shared_ptrINS_30UsdShadeConnectableAPIBehaviorEE)
  %12 = load ptr, ptr %3, align 8
  %13 = call noundef nonnull align 8 dereferenceable(32) ptr @_ZNK32pxrInternal_v0_24__pxrReserved__6TfType11GetTypeNameB5cxx11Ev(ptr noundef nonnull align 8 dereferenceable(8) %12)
  %14 = call noundef ptr @_ZNKSt7__cxx1112basic_stringIcSt11char_traitsIcESaIcEE5c_strEv(ptr noundef nonnull align 8 dereferenceable(32) %13) #11
  call void (ptr, i32, ptr, ...) @_ZN32pxrInternal_v0_24__pxrReserved__18Tf_PostErrorHelperERKNS_13TfCallContextENS_16TfDiagnosticTypeEPKcz(ptr noundef nonnull align 8 dereferenceable(33) %5, i32 noundef 1, ptr noundef @.str.11, ptr noundef %14)
  br label %19

15:                                               ; preds = %8
  %16 = call noundef nonnull align 8 dereferenceable(73) ptr @_ZN32pxrInternal_v0_24__pxrReserved__12_GLOBAL__N_117_BehaviorRegistry11GetInstanceEv()
  %17 = load ptr, ptr %3, align 8
  %18 = load ptr, ptr %4, align 8
  call void @_ZN32pxrInternal_v0_24__pxrReserved__12_GLOBAL__N_117_BehaviorRegistry23RegisterBehaviorForTypeERKNS_6TfTypeERKSt10shared_ptrINS_30UsdShadeConnectableAPIBehaviorEE(ptr noundef nonnull align 8 dereferenceable(73) %16, ptr noundef nonnull align 8 dereferenceable(8) %17, ptr noundef nonnull align 8 dereferenceable(16) %18)
  br label %19

19:                                               ; preds = %15, %11
  ret void
}