; Function Attrs: mustprogress uwtable
define void @_ZN32pxrInternal_v0_24__pxrReserved__38UsdShadeRegisterConnectableAPIBehaviorERKNS_6TfTypeERKSt10shared_ptrINS_30UsdShadeConnectableAPIBehaviorEE(ptr noundef nonnull align 8 dereferenceable(8) %0, ptr nocapture noundef nonnull readonly align 8 dereferenceable(16) %1) local_unnamed_addr #3 {
  %3 = alloca %"class.pxrInternal_v0_24__pxrReserved__::TfType", align 8
  %4 = alloca %"class.pxrInternal_v0_24__pxrReserved__::TfCallContext", align 8
  %5 = load ptr, ptr %1, align 8
  %.not = icmp eq ptr %5, null
  br i1 %.not, label %10, label %6

6:                                                ; preds = %2
  call void @llvm.lifetime.start.p0(i64 8, ptr nonnull %3)
  call void @_ZN32pxrInternal_v0_24__pxrReserved__6TfTypeC1Ev(ptr noundef nonnull align 8 dereferenceable(8) %3)
  %7 = load ptr, ptr %0, align 8
  %8 = load ptr, ptr %3, align 8
  %9 = icmp eq ptr %7, %8
  call void @llvm.lifetime.end.p0(i64 8, ptr nonnull %3)
  br i1 %9, label %10, label %17

10:                                               ; preds = %6, %2
  store ptr @.str.10, ptr %4, align 8
  %11 = getelementptr inbounds nuw i8, ptr %4, i64 8
  store ptr @__func__._ZN32pxrInternal_v0_24__pxrReserved__38UsdShadeRegisterConnectableAPIBehaviorERKNS_6TfTypeERKSt10shared_ptrINS_30UsdShadeConnectableAPIBehaviorEE, ptr %11, align 8
  %12 = getelementptr inbounds nuw i8, ptr %4, i64 16
  store i64 820, ptr %12, align 8
  %13 = getelementptr inbounds nuw i8, ptr %4, i64 24
  store ptr @__PRETTY_FUNCTION__._ZN32pxrInternal_v0_24__pxrReserved__38UsdShadeRegisterConnectableAPIBehaviorERKNS_6TfTypeERKSt10shared_ptrINS_30UsdShadeConnectableAPIBehaviorEE, ptr %13, align 8
  %14 = getelementptr inbounds nuw i8, ptr %4, i64 32
  store i8 0, ptr %14, align 8
  %15 = call noundef nonnull align 8 dereferenceable(32) ptr @_ZNK32pxrInternal_v0_24__pxrReserved__6TfType11GetTypeNameB5cxx11Ev(ptr noundef nonnull align 8 dereferenceable(8) %0)
  %16 = call noundef ptr @_ZNKSt7__cxx1112basic_stringIcSt11char_traitsIcESaIcEE5c_strEv(ptr noundef nonnull align 8 dereferenceable(32) %15) #18
  call void (ptr, i32, ptr, ...) @_ZN32pxrInternal_v0_24__pxrReserved__18Tf_PostErrorHelperERKNS_13TfCallContextENS_16TfDiagnosticTypeEPKcz(ptr noundef nonnull align 8 dereferenceable(33) %4, i32 noundef 1, ptr noundef nonnull @.str.11, ptr noundef %16)
  br label %19

17:                                               ; preds = %6
  %18 = call fastcc noundef nonnull align 8 dereferenceable(73) ptr @_ZN32pxrInternal_v0_24__pxrReserved__12_GLOBAL__N_117_BehaviorRegistry11GetInstanceEv()
  call fastcc void @_ZN32pxrInternal_v0_24__pxrReserved__12_GLOBAL__N_117_BehaviorRegistry23RegisterBehaviorForTypeERKNS_6TfTypeERKSt10shared_ptrINS_30UsdShadeConnectableAPIBehaviorEE(ptr noundef nonnull align 8 dereferenceable(73) %18, ptr noundef nonnull align 8 dereferenceable(8) %0, ptr noundef nonnull align 8 dereferenceable(16) %1)
  br label %19

19:                                               ; preds = %17, %10
  ret void
}